target datalayout = "e-m:e-p270:32:32-p271:32:32-p272:64:64-i64:64-i128:128-f80:128-n8:16:32:64-S128"
target triple = "x86_64-pc-linux-gnu"

%"class.google::protobuf::MessageLite" = type { ptr, %"class.google::protobuf::internal::InternalMetadata" }
%"class.google::protobuf::internal::InternalMetadata" = type { ptr }
%"class.google::protobuf::internal::CachedSize" = type { %"struct.std::atomic" }
%"struct.std::atomic" = type { %"struct.std::__atomic_base" }
%"struct.std::__atomic_base" = type { i32 }
%"class.google::protobuf::internal::RepeatedPtrFieldBase" = type { ptr, i32, i32, ptr }
%"struct.google::protobuf::internal::InternalMetadata::Container" = type { %"struct.google::protobuf::internal::InternalMetadata::ContainerBase", %"class.std::__cxx11::basic_string" }
%"struct.google::protobuf::internal::InternalMetadata::ContainerBase" = type { ptr }
%"class.std::__cxx11::basic_string" = type { %"struct.std::__cxx11::basic_string<char>::_Alloc_hider", i64, %union.anon }
%"struct.std::__cxx11::basic_string<char>::_Alloc_hider" = type { ptr }
%union.anon = type { i64, [8 x i8] }
%"class.google::protobuf::internal::LogMessage" = type { i32, ptr, i32, %"class.std::__cxx11::basic_string" }
%"class.google::protobuf::internal::LogFinisher" = type { i8 }
%"class.i18n::phonenumbers::PhoneMetadataCollection" = type <{ %"class.google::protobuf::MessageLite", %"class.google::protobuf::RepeatedPtrField.6", %"class.google::protobuf::internal::CachedSize", [4 x i8] }>
%"class.google::protobuf::RepeatedPtrField.6" = type { %"class.google::protobuf::internal::RepeatedPtrFieldBase" }
%"class.google::protobuf::Arena" = type { %"class.google::protobuf::internal::ArenaImpl", ptr, ptr, ptr, ptr }
%"class.google::protobuf::internal::ArenaImpl" = type { %"struct.std::atomic.9", %"struct.std::atomic.9", %"struct.std::atomic.11", ptr, i64, %"struct.google::protobuf::internal::ArenaImpl::Options" }
%"struct.std::atomic.9" = type { %"struct.std::__atomic_base.10" }
%"struct.std::__atomic_base.10" = type { ptr }
%"struct.std::atomic.11" = type { %"struct.std::__atomic_base.12" }
%"struct.std::__atomic_base.12" = type { i64 }
%"struct.google::protobuf::internal::ArenaImpl::Options" = type { i64, i64, ptr, i64, ptr, ptr }
%"struct.google::protobuf::internal::RepeatedPtrFieldBase::Rep" = type { i32, [1 x ptr] }

@.str.47 = private unnamed_addr constant [55 x i8] c"generated/usr/include/google/protobuf/repeated_field.h\00", align 1
@.str.51 = private unnamed_addr constant [27 x i8] c"CHECK failed: (n) >= (0): \00", align 1

; Function Attrs: mustprogress uwtable
define linkonce_odr dso_local void @_ZNK6google8protobuf5Arena9AllocHookEPKSt9type_infom(ptr noundef nonnull align 8 dereferenceable(120) %0, ptr noundef %1, i64 noundef %2) #4 comdat align 2 {
  %4 = alloca ptr, align 8
  %5 = alloca ptr, align 8
  %6 = alloca i64, align 8
  store ptr %0, ptr %4, align 8
  store ptr %1, ptr %5, align 8
  store i64 %2, ptr %6, align 8
  %7 = load ptr, ptr %4, align 8
  %8 = getelementptr inbounds %"class.google::protobuf::Arena", ptr %7, i32 0, i32 4
  %9 = load ptr, ptr %8, align 8
  %10 = icmp ne ptr %9, null
  br i1 %10, label %11, label %14

11:                                               ; preds = %3
  %12 = load ptr, ptr %5, align 8
  %13 = load i64, ptr %6, align 8
  call void @_ZNK6google8protobuf5Arena17OnArenaAllocationEPKSt9type_infom(ptr noundef nonnull align 8 dereferenceable(120) %7, ptr noundef %12, i64 noundef %13)
  br label %14

14:                                               ; preds = %11, %3
  ret void
}

; Function Attrs: mustprogress nounwind uwtable
define linkonce_odr dso_local noundef i64 @_ZN6google8protobuf8internal10AlignUpTo8Em(i64 noundef %0) #5 comdat {
  %2 = alloca i64, align 8
  store i64 %0, ptr %2, align 8
  %3 = load i64, ptr %2, align 8
  %4 = add i64 %3, 7
  %5 = and i64 %4, -8
  ret i64 %5
}

; Function Attrs: mustprogress nounwind uwtable
define linkonce_odr dso_local void @_ZN6google8protobuf8internal16InternalMetadata9ContainerINSt7__cxx1112basic_stringIcSt11char_traitsIcESaIcEEEEC2Ev(ptr noundef nonnull align 8 dereferenceable(40) %0) unnamed_addr #5 comdat align 2 {
  %2 = alloca ptr, align 8
  store ptr %0, ptr %2, align 8
  %3 = load ptr, ptr %2, align 8
  %4 = getelementptr inbounds %"struct.google::protobuf::internal::InternalMetadata::Container", ptr %3, i32 0, i32 1
  call void @_ZNSt7__cxx1112basic_stringIcSt11char_traitsIcESaIcEEC1Ev(ptr noundef nonnull align 8 dereferenceable(32) %4) #3
  ret void
}

; Function Attrs: mustprogress nounwind uwtable
define linkonce_odr dso_local noundef ptr @_ZNK6google8protobuf8internal16InternalMetadata8PtrValueINS0_5ArenaEEEPT_v(ptr noundef nonnull align 8 dereferenceable(8) %0) #5 comdat align 2 {
  %2 = alloca ptr, align 8
  store ptr %0, ptr %2, align 8
  %3 = load ptr, ptr %2, align 8
  %4 = getelementptr inbounds %"class.google::protobuf::internal::InternalMetadata", ptr %3, i32 0, i32 0
  %5 = load ptr, ptr %4, align 8
  %6 = ptrtoint ptr %5 to i64
  %7 = and i64 %6, -2
  %8 = inttoptr i64 %7 to ptr
  ret ptr %8
}

; Function Attrs: mustprogress nounwind uwtable
define linkonce_odr dso_local noundef ptr @_ZNK6google8protobuf8internal16InternalMetadata8PtrValueINS2_13ContainerBaseEEEPT_v(ptr noundef nonnull align 8 dereferenceable(8) %0) #5 comdat align 2 {
  %2 = alloca ptr, align 8
  store ptr %0, ptr %2, align 8
  %3 = load ptr, ptr %2, align 8
  %4 = getelementptr inbounds %"class.google::protobuf::internal::InternalMetadata", ptr %3, i32 0, i32 0
  %5 = load ptr, ptr %4, align 8
  %6 = ptrtoint ptr %5 to i64
  %7 = and i64 %6, -2
  %8 = inttoptr i64 %7 to ptr
  ret ptr %8
}

; Function Attrs: mustprogress uwtable
define linkonce_odr dso_local void @_ZN6google8protobuf8internal18GenericTypeHandlerIN4i18n12phonenumbers13PhoneMetadataEE5ClearEPS5_(ptr noundef %0) #4 comdat align 2 {
  %2 = alloca ptr, align 8
  store ptr %0, ptr %2, align 8
  %3 = load ptr, ptr %2, align 8
  call void @_ZN4i18n12phonenumbers13PhoneMetadata5ClearEv(ptr noundef nonnull align 8 dereferenceable(280) %3)
  ret void
}

; Function Attrs: mustprogress nounwind uwtable
define linkonce_odr dso_local noundef ptr @_ZN6google8protobuf8internal20RepeatedPtrFieldBase4castINS0_16RepeatedPtrFieldIN4i18n12phonenumbers13PhoneMetadataEE11TypeHandlerEEEPNT_4TypeEPv(ptr noundef %0) #5 comdat align 2 {
  %2 = alloca ptr, align 8
  store ptr %0, ptr %2, align 8
  %3 = load ptr, ptr %2, align 8
  ret ptr %3
}

; Function Attrs: mustprogress uwtable
define linkonce_odr dso_local noundef ptr @_ZN6google8protobuf8internal16InternalMetadata27mutable_unknown_fields_slowINSt7__cxx1112basic_stringIcSt11char_traitsIcESaIcEEEEEPT_v(ptr noundef nonnull align 8 dereferenceable(8) %0) #4 comdat align 2 {
  %2 = alloca ptr, align 8
  %3 = alloca ptr, align 8
  %4 = alloca i8, align 1
  %5 = alloca i64, align 8
  %6 = alloca ptr, align 8
  %7 = alloca i8, align 1
  %8 = alloca ptr, align 8
  %9 = alloca ptr, align 8
  %10 = alloca ptr, align 8
  %11 = alloca ptr, align 8
  %12 = alloca ptr, align 8
  %13 = alloca ptr, align 8
  %14 = alloca ptr, align 8
  %15 = alloca ptr, align 8
  %16 = alloca ptr, align 8
  %17 = alloca ptr, align 8
  %18 = alloca ptr, align 8
  %19 = alloca ptr, align 8
  %20 = alloca ptr, align 8
  store ptr %0, ptr %18, align 8
  %21 = load ptr, ptr %18, align 8
  store ptr %21, ptr %17, align 8
  %22 = load ptr, ptr %17, align 8
  store ptr %22, ptr %15, align 8
  %23 = load ptr, ptr %15, align 8
  store ptr %23, ptr %14, align 8
  %24 = load ptr, ptr %14, align 8
  %25 = load ptr, ptr %24, align 8
  %26 = ptrtoint ptr %25 to i64
  %27 = and i64 %26, 1
  %28 = trunc i64 %27 to i32
  %29 = icmp eq i32 %28, 1
  br i1 %29, label %30, label %33

30:                                               ; preds = %1
  %31 = call noundef ptr @_ZNK6google8protobuf8internal16InternalMetadata8PtrValueINS2_13ContainerBaseEEEPT_v(ptr noundef nonnull align 8 dereferenceable(8) %22)
  %32 = load ptr, ptr %31, align 8
  store ptr %32, ptr %16, align 8
  br label %35

33:                                               ; preds = %1
  %34 = call noundef ptr @_ZNK6google8protobuf8internal16InternalMetadata8PtrValueINS0_5ArenaEEEPT_v(ptr noundef nonnull align 8 dereferenceable(8) %22)
  store ptr %34, ptr %16, align 8
  br label %35

35:                                               ; preds = %33, %30
  %36 = load ptr, ptr %16, align 8
  store ptr %36, ptr %19, align 8
  %37 = load ptr, ptr %19, align 8
  store ptr %37, ptr %13, align 8
  %38 = load ptr, ptr %13, align 8
  store ptr %38, ptr %12, align 8
  %39 = load ptr, ptr %12, align 8
  store ptr %39, ptr %11, align 8
  %40 = load ptr, ptr %11, align 8
  store ptr %40, ptr %10, align 8
  %41 = load ptr, ptr %10, align 8
  store ptr %41, ptr %9, align 8
  %42 = load ptr, ptr %9, align 8
  %43 = icmp eq ptr %42, null
  br i1 %43, label %44, label %46

44:                                               ; preds = %35
  %45 = call noalias noundef nonnull ptr @_Znwm(i64 noundef 40) #18
  call void @llvm.memset.p0.i64(ptr align 16 %45, i8 0, i64 40, i1 false)
  call void @_ZN6google8protobuf8internal16InternalMetadata9ContainerINSt7__cxx1112basic_stringIcSt11char_traitsIcESaIcEEEEC2Ev(ptr noundef nonnull align 8 dereferenceable(40) %45) #3
  store ptr %45, ptr %8, align 8
  br label %65

46:                                               ; preds = %35
  %47 = load ptr, ptr %9, align 8
  store ptr %47, ptr %6, align 8
  store i8 0, ptr %7, align 1
  %48 = load ptr, ptr %6, align 8
  %49 = load i8, ptr %7, align 1
  %50 = trunc i8 %49 to i1
  store ptr %48, ptr %3, align 8
  %51 = zext i1 %50 to i8
  store i8 %51, ptr %4, align 1
  %52 = load ptr, ptr %3, align 8
  %53 = call noundef i64 @_ZN6google8protobuf8internal10AlignUpTo8Em(i64 noundef 40)
  store i64 %53, ptr %5, align 8
  %54 = load i64, ptr %5, align 8
  call void @_ZNK6google8protobuf5Arena9AllocHookEPKSt9type_infom(ptr noundef nonnull align 8 dereferenceable(120) %52, ptr noundef @_ZTIN6google8protobuf8internal16InternalMetadata9ContainerINSt7__cxx1112basic_stringIcSt11char_traitsIcESaIcEEEEE, i64 noundef %54)
  %55 = load i8, ptr %4, align 1
  %56 = trunc i8 %55 to i1
  br i1 %56, label %57, label %60

57:                                               ; preds = %46
  %58 = load i64, ptr %5, align 8
  %59 = call noundef ptr @_ZN6google8protobuf5Arena21AllocateAlignedNoHookEm(ptr noundef nonnull align 8 dereferenceable(120) %52, i64 noundef %58)
  store ptr %59, ptr %2, align 8
  br label %63

60:                                               ; preds = %46
  %61 = load i64, ptr %5, align 8
  %62 = call noundef ptr @_ZN6google8protobuf8internal9ArenaImpl28AllocateAlignedAndAddCleanupEmPFvPvE(ptr noundef nonnull align 8 dereferenceable(88) %52, i64 noundef %61, ptr noundef @_ZN6google8protobuf8internal21arena_destruct_objectINS1_16InternalMetadata9ContainerINSt7__cxx1112basic_stringIcSt11char_traitsIcESaIcEEEEEEEvPv)
  store ptr %62, ptr %2, align 8
  br label %63

63:                                               ; preds = %60, %57
  %64 = load ptr, ptr %2, align 8
  call void @llvm.memset.p0.i64(ptr align 8 %64, i8 0, i64 40, i1 false)
  call void @_ZN6google8protobuf8internal16InternalMetadata9ContainerINSt7__cxx1112basic_stringIcSt11char_traitsIcESaIcEEEEC2Ev(ptr noundef nonnull align 8 dereferenceable(40) %64) #3
  store ptr %64, ptr %8, align 8
  br label %65

65:                                               ; preds = %63, %44
  %66 = load ptr, ptr %8, align 8
  store ptr %66, ptr %20, align 8
  %67 = load ptr, ptr %20, align 8
  %68 = getelementptr inbounds %"class.google::protobuf::internal::InternalMetadata", ptr %21, i32 0, i32 0
  store ptr %67, ptr %68, align 8
  %69 = getelementptr inbounds %"class.google::protobuf::internal::InternalMetadata", ptr %21, i32 0, i32 0
  %70 = load ptr, ptr %69, align 8
  %71 = ptrtoint ptr %70 to i64
  %72 = or i64 %71, 1
  %73 = inttoptr i64 %72 to ptr
  %74 = getelementptr inbounds %"class.google::protobuf::internal::InternalMetadata", ptr %21, i32 0, i32 0
  store ptr %73, ptr %74, align 8
  %75 = load ptr, ptr %19, align 8
  %76 = load ptr, ptr %20, align 8
  %77 = getelementptr inbounds %"struct.google::protobuf::internal::InternalMetadata::ContainerBase", ptr %76, i32 0, i32 0
  store ptr %75, ptr %77, align 8
  %78 = load ptr, ptr %20, align 8
  %79 = getelementptr inbounds %"struct.google::protobuf::internal::InternalMetadata::Container", ptr %78, i32 0, i32 1
  ret ptr %79
}

; Function Attrs: mustprogress nounwind uwtable
define linkonce_odr dso_local noundef ptr @_ZNK6google8protobuf8internal16InternalMetadata8PtrValueINS2_9ContainerINSt7__cxx1112basic_stringIcSt11char_traitsIcESaIcEEEEEEEPT_v(ptr noundef nonnull align 8 dereferenceable(8) %0) #5 comdat align 2 {
  %2 = alloca ptr, align 8
  store ptr %0, ptr %2, align 8
  %3 = load ptr, ptr %2, align 8
  %4 = getelementptr inbounds %"class.google::protobuf::internal::InternalMetadata", ptr %3, i32 0, i32 0
  %5 = load ptr, ptr %4, align 8
  %6 = ptrtoint ptr %5 to i64
  %7 = and i64 %6, -2
  %8 = inttoptr i64 %7 to ptr
  ret ptr %8
}

; Function Attrs: mustprogress uwtable
define linkonce_odr dso_local void @_ZN6google8protobuf8internal20RepeatedPtrFieldBase5ClearINS0_16RepeatedPtrFieldIN4i18n12phonenumbers13PhoneMetadataEE11TypeHandlerEEEvv(ptr noundef nonnull align 8 dereferenceable(24) %0) #4 comdat align 2 personality ptr @__gxx_personality_v0 {
  %2 = alloca ptr, align 8
  %3 = alloca i32, align 4
  %4 = alloca %"class.google::protobuf::internal::LogMessage", align 8
  %5 = alloca i1, align 1
  %6 = alloca ptr, align 8
  %7 = alloca i32, align 4
  %8 = alloca %"class.google::protobuf::internal::LogFinisher", align 1
  %9 = alloca ptr, align 8
  %10 = alloca i32, align 4
  store ptr %0, ptr %2, align 8
  %11 = load ptr, ptr %2, align 8
  %12 = getelementptr inbounds %"class.google::protobuf::internal::RepeatedPtrFieldBase", ptr %11, i32 0, i32 1
  %13 = load i32, ptr %12, align 8
  store i32 %13, ptr %3, align 4
  br label %14

14:                                               ; preds = %26, %1
  br i1 false, label %15, label %34

15:                                               ; preds = %14
  %16 = load i32, ptr %3, align 4
  %17 = icmp sge i32 %16, 0
  store i1 false, ptr %5, align 1
  br i1 %17, label %18, label %19

18:                                               ; preds = %15
  br label %23

19:                                               ; preds = %15
  call void @_ZN6google8protobuf8internal10LogMessageC1ENS0_8LogLevelEPKci(ptr noundef nonnull align 8 dereferenceable(56) %4, i32 noundef 3, ptr noundef @.str.47, i32 noundef 1768)
  store i1 true, ptr %5, align 1
  %20 = invoke noundef nonnull align 8 dereferenceable(56) ptr @_ZN6google8protobuf8internal10LogMessagelsEPKc(ptr noundef nonnull align 8 dereferenceable(56) %4, ptr noundef @.str.51)
          to label %21 unwind label %27

21:                                               ; preds = %19
  invoke void @_ZN6google8protobuf8internal11LogFinisheraSERNS1_10LogMessageE(ptr noundef nonnull align 1 dereferenceable(1) %8, ptr noundef nonnull align 8 dereferenceable(56) %20)
          to label %22 unwind label %27

22:                                               ; preds = %21
  br label %23

23:                                               ; preds = %22, %18
  %24 = load i1, ptr %5, align 1
  br i1 %24, label %25, label %26

25:                                               ; preds = %23
  call void @_ZN6google8protobuf8internal10LogMessageD1Ev(ptr noundef nonnull align 8 dereferenceable(56) %4) #3
  br label %26

26:                                               ; preds = %25, %23
  br label %14, !llvm.loop !78

27:                                               ; preds = %21, %19
  %28 = landingpad { ptr, i32 }
          cleanup
  %29 = extractvalue { ptr, i32 } %28, 0
  store ptr %29, ptr %6, align 8
  %30 = extractvalue { ptr, i32 } %28, 1
  store i32 %30, ptr %7, align 4
  %31 = load i1, ptr %5, align 1
  br i1 %31, label %32, label %33

32:                                               ; preds = %27
  call void @_ZN6google8protobuf8internal10LogMessageD1Ev(ptr noundef nonnull align 8 dereferenceable(56) %4) #3
  br label %33

33:                                               ; preds = %32, %27
  br label %57

34:                                               ; preds = %14
  %35 = load i32, ptr %3, align 4
  %36 = icmp sgt i32 %35, 0
  br i1 %36, label %37, label %56

37:                                               ; preds = %34
  %38 = getelementptr inbounds %"class.google::protobuf::internal::RepeatedPtrFieldBase", ptr %11, i32 0, i32 3
  %39 = load ptr, ptr %38, align 8
  %40 = getelementptr inbounds %"struct.google::protobuf::internal::RepeatedPtrFieldBase::Rep", ptr %39, i32 0, i32 1
  %41 = getelementptr inbounds [1 x ptr], ptr %40, i64 0, i64 0
  store ptr %41, ptr %9, align 8
  store i32 0, ptr %10, align 4
  br label %42

42:                                               ; preds = %50, %37
  %43 = load ptr, ptr %9, align 8
  %44 = load i32, ptr %10, align 4
  %45 = add nsw i32 %44, 1
  store i32 %45, ptr %10, align 4
  %46 = sext i32 %44 to i64
  %47 = getelementptr inbounds ptr, ptr %43, i64 %46
  %48 = load ptr, ptr %47, align 8
  %49 = call noundef ptr @_ZN6google8protobuf8internal20RepeatedPtrFieldBase4castINS0_16RepeatedPtrFieldIN4i18n12phonenumbers13PhoneMetadataEE11TypeHandlerEEEPNT_4TypeEPv(ptr noundef %48)
  call void @_ZN6google8protobuf8internal18GenericTypeHandlerIN4i18n12phonenumbers13PhoneMetadataEE5ClearEPS5_(ptr noundef %49)
  br label %50

50:                                               ; preds = %42
  %51 = load i32, ptr %10, align 4
  %52 = load i32, ptr %3, align 4
  %53 = icmp slt i32 %51, %52
  br i1 %53, label %42, label %54, !llvm.loop !79

54:                                               ; preds = %50
  %55 = getelementptr inbounds %"class.google::protobuf::internal::RepeatedPtrFieldBase", ptr %11, i32 0, i32 1
  store i32 0, ptr %55, align 8
  br label %56

56:                                               ; preds = %54, %34
  ret void

57:                                               ; preds = %33
  %58 = load ptr, ptr %6, align 8
  %59 = load i32, ptr %7, align 4
  %60 = insertvalue { ptr, i32 } poison, ptr %58, 0
  %61 = insertvalue { ptr, i32 } %60, i32 %59, 1
  resume { ptr, i32 } %61
}

; Function Attrs: mustprogress uwtable
define linkonce_odr dso_local void @_ZN6google8protobuf8internal16InternalMetadata7DoClearINSt7__cxx1112basic_stringIcSt11char_traitsIcESaIcEEEEEvv(ptr noundef nonnull align 8 dereferenceable(8) %0) #4 comdat align 2 {
  %2 = alloca ptr, align 8
  %3 = alloca ptr, align 8
  %4 = alloca ptr, align 8
  %5 = alloca ptr, align 8
  %6 = alloca ptr, align 8
  store ptr %0, ptr %6, align 8
  %7 = load ptr, ptr %6, align 8
  store ptr %7, ptr %5, align 8
  %8 = load ptr, ptr %5, align 8
  store ptr %8, ptr %3, align 8
  %9 = load ptr, ptr %3, align 8
  store ptr %9, ptr %2, align 8
  %10 = load ptr, ptr %2, align 8
  %11 = load ptr, ptr %10, align 8
  %12 = ptrtoint ptr %11 to i64
  %13 = and i64 %12, 1
  %14 = trunc i64 %13 to i32
  %15 = icmp eq i32 %14, 1
  br i1 %15, label %16, label %19

16:                                               ; preds = %1
  %17 = call noundef ptr @_ZNK6google8protobuf8internal16InternalMetadata8PtrValueINS2_9ContainerINSt7__cxx1112basic_stringIcSt11char_traitsIcESaIcEEEEEEEPT_v(ptr noundef nonnull align 8 dereferenceable(8) %8)
  %18 = getelementptr inbounds %"struct.google::protobuf::internal::InternalMetadata::Container", ptr %17, i32 0, i32 1
  store ptr %18, ptr %4, align 8
  br label %21

19:                                               ; preds = %1
  %20 = call noundef ptr @_ZN6google8protobuf8internal16InternalMetadata27mutable_unknown_fields_slowINSt7__cxx1112basic_stringIcSt11char_traitsIcESaIcEEEEEPT_v(ptr noundef nonnull align 8 dereferenceable(8) %8)
  store ptr %20, ptr %4, align 8
  br label %21

21:                                               ; preds = %19, %16
  %22 = load ptr, ptr %4, align 8
  call void @_ZNSt7__cxx1112basic_stringIcSt11char_traitsIcESaIcEE5clearEv(ptr noundef nonnull align 8 dereferenceable(32) %22) #3
  ret void
}

; Function Attrs: mustprogress uwtable
define linkonce_odr dso_local void @_ZN6google8protobuf16RepeatedPtrFieldIN4i18n12phonenumbers13PhoneMetadataEE5ClearEv(ptr noundef nonnull align 8 dereferenceable(24) %0) #4 comdat align 2 {
  %2 = alloca ptr, align 8
  store ptr %0, ptr %2, align 8
  %3 = load ptr, ptr %2, align 8
  call void @_ZN6google8protobuf8internal20RepeatedPtrFieldBase5ClearINS0_16RepeatedPtrFieldIN4i18n12phonenumbers13PhoneMetadataEE11TypeHandlerEEEvv(ptr noundef nonnull align 8 dereferenceable(24) %3)
  ret void
}

; Function Attrs: mustprogress uwtable
define dso_local void @_ZN4i18n12phonenumbers23PhoneMetadataCollection5ClearEv(ptr noundef nonnull align 8 dereferenceable(48) %0) unnamed_addr #4 align 2 {
  %2 = alloca ptr, align 8
  %3 = alloca ptr, align 8
  %4 = alloca ptr, align 8
  %5 = alloca ptr, align 8
  %6 = alloca i32, align 4
  store ptr %0, ptr %5, align 8
  %7 = load ptr, ptr %5, align 8
  store i32 0, ptr %6, align 4
  %8 = getelementptr inbounds %"class.i18n::phonenumbers::PhoneMetadataCollection", ptr %7, i32 0, i32 1
  call void @_ZN6google8protobuf16RepeatedPtrFieldIN4i18n12phonenumbers13PhoneMetadataEE5ClearEv(ptr noundef nonnull align 8 dereferenceable(24) %8)
  %9 = getelementptr inbounds %"class.google::protobuf::MessageLite", ptr %7, i32 0, i32 1
  store ptr %9, ptr %4, align 8
  %10 = load ptr, ptr %4, align 8
  store ptr %10, ptr %3, align 8
  %11 = load ptr, ptr %3, align 8
  store ptr %11, ptr %2, align 8
  %12 = load ptr, ptr %2, align 8
  %13 = load ptr, ptr %12, align 8
  %14 = ptrtoint ptr %13 to i64
  %15 = and i64 %14, 1
  %16 = trunc i64 %15 to i32
  %17 = icmp eq i32 %16, 1
  br i1 %17, label %18, label %19

18:                                               ; preds = %1
  call void @_ZN6google8protobuf8internal16InternalMetadata7DoClearINSt7__cxx1112basic_stringIcSt11char_traitsIcESaIcEEEEEvv(ptr noundef nonnull align 8 dereferenceable(8) %10)
  br label %19

19:                                               ; preds = %18, %1
  ret void
}